target datalayout = "e-m:e-p270:32:32-p271:32:32-p272:64:64-i64:64-i128:128-f80:128-n8:16:32:64-S128"
target triple = "x86_64-pc-linux-gnu"

%struct._GLFWwindow = type { ptr, i32, i32, i32, i32, i32, i32, i32, ptr, i32, %struct.GLFWvidmode, ptr, ptr, ptr, i32, i32, i32, i32, i32, i32, i32, i32, i32, i32, [8 x i8], [349 x i8], double, double, i32, %struct._GLFWcontext, %struct.anon.1, %struct._GLFWwindowWayland, %struct._GLFWwindowX11, %struct._GLFWwindowNull }
%struct.GLFWvidmode = type { i32, i32, i32, i32, i32, i32 }
%struct._GLFWcontext = type { i32, i32, i32, i32, i32, i32, i32, i32, i32, i32, i32, ptr, ptr, ptr, ptr, ptr, ptr, ptr, ptr, ptr, %struct.anon, %struct.anon.0, %struct._GLFWcontextGLX }
%struct.anon = type { ptr, ptr, ptr, ptr }
%struct.anon.0 = type { ptr, i32, i32, ptr }
%struct._GLFWcontextGLX = type { ptr, i64 }
%struct.anon.1 = type { ptr, ptr, ptr, ptr, ptr, ptr, ptr, ptr, ptr, ptr, ptr, ptr, ptr, ptr, ptr, ptr, ptr }
%struct._GLFWwindowWayland = type { i32, i32, i32, i32, i32, i32, i32, i32, i32, i32, i32, ptr, ptr, %struct.anon.2, %struct.anon.3, %struct.anon.4, %struct.anon.5, ptr, double, double, ptr, i32, ptr, i64, i64, ptr, i32, ptr, ptr, ptr, ptr, ptr, ptr, %struct.anon.6 }
%struct.anon.2 = type { ptr }
%struct.anon.3 = type { i32, i32, i32, i32, i32, i32 }
%struct.anon.4 = type { ptr, ptr, ptr, i32 }
%struct.anon.5 = type { ptr }
%struct.anon.6 = type { i32, ptr, %struct._GLFWfallbackEdgeWayland, %struct._GLFWfallbackEdgeWayland, %struct._GLFWfallbackEdgeWayland, %struct._GLFWfallbackEdgeWayland, ptr }
%struct._GLFWfallbackEdgeWayland = type { ptr, ptr, ptr }
%struct._GLFWwindowX11 = type { i64, i64, i64, ptr, i32, i32, i32, i32, i32, i32, i32, i32, i32, i32, i32, i32, [256 x i64] }
%struct._GLFWwindowNull = type { i32, i32, i32, i32, i32, i32, i32, i32, i32, i32, i32, float }

; Function Attrs: nounwind uwtable
define hidden void @_glfwInputKey(ptr noundef %0, i32 noundef %1, i32 noundef %2, i32 noundef %3, i32 noundef %4) #0 {
  %6 = alloca ptr, align 8
  %7 = alloca i32, align 4
  %8 = alloca i32, align 4
  %9 = alloca i32, align 4
  %10 = alloca i32, align 4
  %11 = alloca i32, align 4
  %12 = alloca i32, align 4
  store ptr %0, ptr %6, align 8, !tbaa !3
  store i32 %1, ptr %7, align 4, !tbaa !8
  store i32 %2, ptr %8, align 4, !tbaa !8
  store i32 %3, ptr %9, align 4, !tbaa !8
  store i32 %4, ptr %10, align 4, !tbaa !8
  %13 = load i32, ptr %7, align 4, !tbaa !8
  %14 = icmp sge i32 %13, 0
  br i1 %14, label %15, label %74

15:                                               ; preds = %5
  %16 = load i32, ptr %7, align 4, !tbaa !8
  %17 = icmp sle i32 %16, 348
  br i1 %17, label %18, label %74

18:                                               ; preds = %15
  call void @llvm.lifetime.start.p0(i64 4, ptr %11) #8
  store i32 0, ptr %11, align 4, !tbaa !8
  %19 = load i32, ptr %9, align 4, !tbaa !8
  %20 = icmp eq i32 %19, 0
  br i1 %20, label %21, label %31

21:                                               ; preds = %18
  %22 = load ptr, ptr %6, align 8, !tbaa !3
  %23 = getelementptr inbounds nuw %struct._GLFWwindow, ptr %22, i32 0, i32 25
  %24 = load i32, ptr %7, align 4, !tbaa !8
  %25 = sext i32 %24 to i64
  %26 = getelementptr inbounds [349 x i8], ptr %23, i64 0, i64 %25
  %27 = load i8, ptr %26, align 1, !tbaa !10
  %28 = sext i8 %27 to i32
  %29 = icmp eq i32 %28, 0
  br i1 %29, label %30, label %31

30:                                               ; preds = %21
  store i32 1, ptr %12, align 4
  br label %71

31:                                               ; preds = %21, %18
  %32 = load i32, ptr %9, align 4, !tbaa !8
  %33 = icmp eq i32 %32, 1
  br i1 %33, label %34, label %44

34:                                               ; preds = %31
  %35 = load ptr, ptr %6, align 8, !tbaa !3
  %36 = getelementptr inbounds nuw %struct._GLFWwindow, ptr %35, i32 0, i32 25
  %37 = load i32, ptr %7, align 4, !tbaa !8
  %38 = sext i32 %37 to i64
  %39 = getelementptr inbounds [349 x i8], ptr %36, i64 0, i64 %38
  %40 = load i8, ptr %39, align 1, !tbaa !10
  %41 = sext i8 %40 to i32
  %42 = icmp eq i32 %41, 1
  br i1 %42, label %43, label %44

43:                                               ; preds = %34
  store i32 1, ptr %11, align 4, !tbaa !8
  br label %44

44:                                               ; preds = %43, %34, %31
  %45 = load i32, ptr %9, align 4, !tbaa !8
  %46 = icmp eq i32 %45, 0
  br i1 %46, label %47, label %58

47:                                               ; preds = %44
  %48 = load ptr, ptr %6, align 8, !tbaa !3
  %49 = getelementptr inbounds nuw %struct._GLFWwindow, ptr %48, i32 0, i32 20
  %50 = load i32, ptr %49, align 8, !tbaa !11
  %51 = icmp ne i32 %50, 0
  br i1 %51, label %52, label %58

52:                                               ; preds = %47
  %53 = load ptr, ptr %6, align 8, !tbaa !3
  %54 = getelementptr inbounds nuw %struct._GLFWwindow, ptr %53, i32 0, i32 25
  %55 = load i32, ptr %7, align 4, !tbaa !8
  %56 = sext i32 %55 to i64
  %57 = getelementptr inbounds [349 x i8], ptr %54, i64 0, i64 %56
  store i8 3, ptr %57, align 1, !tbaa !10
  br label %66

58:                                               ; preds = %47, %44
  %59 = load i32, ptr %9, align 4, !tbaa !8
  %60 = trunc i32 %59 to i8
  %61 = load ptr, ptr %6, align 8, !tbaa !3
  %62 = getelementptr inbounds nuw %struct._GLFWwindow, ptr %61, i32 0, i32 25
  %63 = load i32, ptr %7, align 4, !tbaa !8
  %64 = sext i32 %63 to i64
  %65 = getelementptr inbounds [349 x i8], ptr %62, i64 0, i64 %64
  store i8 %60, ptr %65, align 1, !tbaa !10
  br label %66

66:                                               ; preds = %58, %52
  %67 = load i32, ptr %11, align 4, !tbaa !8
  %68 = icmp ne i32 %67, 0
  br i1 %68, label %69, label %70

69:                                               ; preds = %66
  store i32 2, ptr %9, align 4, !tbaa !8
  br label %70

70:                                               ; preds = %69, %66
  store i32 0, ptr %12, align 4
  br label %71

71:                                               ; preds = %70, %30
  call void @llvm.lifetime.end.p0(i64 4, ptr %11) #8
  %72 = load i32, ptr %12, align 4
  switch i32 %72, label %99 [
    i32 0, label %73
    i32 1, label %98
  ]

73:                                               ; preds = %71
  br label %74

74:                                               ; preds = %73, %15, %5
  %75 = load ptr, ptr %6, align 8, !tbaa !3
  %76 = getelementptr inbounds nuw %struct._GLFWwindow, ptr %75, i32 0, i32 22
  %77 = load i32, ptr %76, align 8, !tbaa !53
  %78 = icmp ne i32 %77, 0
  br i1 %78, label %82, label %79

79:                                               ; preds = %74
  %80 = load i32, ptr %10, align 4, !tbaa !8
  %81 = and i32 %80, -49
  store i32 %81, ptr %10, align 4, !tbaa !8
  br label %82

82:                                               ; preds = %79, %74
  %83 = load ptr, ptr %6, align 8, !tbaa !3
  %84 = getelementptr inbounds nuw %struct._GLFWwindow, ptr %83, i32 0, i32 30
  %85 = getelementptr inbounds nuw %struct.anon.1, ptr %84, i32 0, i32 13
  %86 = load ptr, ptr %85, align 8, !tbaa !54
  %87 = icmp ne ptr %86, null
  br i1 %87, label %88, label %98

88:                                               ; preds = %82
  %89 = load ptr, ptr %6, align 8, !tbaa !3
  %90 = getelementptr inbounds nuw %struct._GLFWwindow, ptr %89, i32 0, i32 30
  %91 = getelementptr inbounds nuw %struct.anon.1, ptr %90, i32 0, i32 13
  %92 = load ptr, ptr %91, align 8, !tbaa !54
  %93 = load ptr, ptr %6, align 8, !tbaa !3
  %94 = load i32, ptr %7, align 4, !tbaa !8
  %95 = load i32, ptr %8, align 4, !tbaa !8
  %96 = load i32, ptr %9, align 4, !tbaa !8
  %97 = load i32, ptr %10, align 4, !tbaa !8
  call void %92(ptr noundef %93, i32 noundef %94, i32 noundef %95, i32 noundef %96, i32 noundef %97)
  br label %98

98:                                               ; preds = %71, %88, %82
  ret void

99:                                               ; preds = %71
  unreachable
}