; Function Attrs: nounwind uwtable
define hidden void @_glfwInputKey(ptr noundef %0, i32 noundef %1, i32 noundef %2, i32 noundef %3, i32 noundef %4) local_unnamed_addr #0 {
  %or.cond = icmp ult i32 %1, 349
  br i1 %or.cond, label %6, label %.thread51

6:                                                ; preds = %5
  switch i32 %3, label %.thread47 [
    i32 0, label %7
    i32 1, label %20
  ]

7:                                                ; preds = %6
  %8 = getelementptr inbounds nuw i8, ptr %0, i64 152
  %9 = zext nneg i32 %1 to i64
  %10 = getelementptr inbounds nuw [349 x i8], ptr %8, i64 0, i64 %9
  %11 = load i8, ptr %10, align 1, !tbaa !3
  %12 = icmp eq i8 %11, 0
  br i1 %12, label %32, label %17

.thread47:                                        ; preds = %6
  %13 = trunc i32 %3 to i8
  %14 = getelementptr inbounds nuw i8, ptr %0, i64 152
  %15 = zext nneg i32 %1 to i64
  %16 = getelementptr inbounds nuw [349 x i8], ptr %14, i64 0, i64 %15
  store i8 %13, ptr %16, align 1, !tbaa !3
  br label %25

17:                                               ; preds = %7
  %18 = getelementptr inbounds nuw i8, ptr %0, i64 128
  %19 = load i32, ptr %18, align 8, !tbaa !6
  %.not = icmp eq i32 %19, 0
  br i1 %.not, label %.thread44, label %.thread41

.thread44:                                        ; preds = %17
  store i8 0, ptr %10, align 1, !tbaa !3
  br label %25

.thread41:                                        ; preds = %17
  store i8 3, ptr %10, align 1, !tbaa !3
  br label %25

20:                                               ; preds = %6
  %21 = getelementptr inbounds nuw i8, ptr %0, i64 152
  %22 = zext nneg i32 %1 to i64
  %23 = getelementptr inbounds nuw [349 x i8], ptr %21, i64 0, i64 %22
  %24 = load i8, ptr %23, align 1, !tbaa !3
  %.fr = freeze i8 %24
  %.not55 = icmp eq i8 %.fr, 1
  store i8 1, ptr %23, align 1, !tbaa !3
  br i1 %.not55, label %.thread51, label %25

25:                                               ; preds = %.thread47, %.thread44, %.thread41, %20
  br label %.thread51

.thread51:                                        ; preds = %25, %20, %5
  %.028 = phi i32 [ %3, %5 ], [ 2, %20 ], [ %3, %25 ]
  %26 = getelementptr inbounds nuw i8, ptr %0, i64 824
  %27 = load ptr, ptr %26, align 8, !tbaa !51
  %.not34 = icmp eq ptr %27, null
  br i1 %.not34, label %32, label %28

28:                                               ; preds = %.thread51
  %29 = getelementptr inbounds nuw i8, ptr %0, i64 136
  %30 = load i32, ptr %29, align 8, !tbaa !52
  %.not33 = icmp eq i32 %30, 0
  %31 = and i32 %4, -49
  %spec.select36 = select i1 %.not33, i32 %31, i32 %4
  tail call void %27(ptr noundef nonnull %0, i32 noundef %1, i32 noundef %2, i32 noundef %.028, i32 noundef %spec.select36) #12
  br label %32

32:                                               ; preds = %7, %28, %.thread51
  ret void
}